; Function Attrs: mustprogress nounwind uwtable
define hidden void @_ZN12GraphBuilder14connect_to_endEP10BlockBegin(ptr noundef nonnull align 8 dereferenceable(97) %0, ptr noundef %1) local_unnamed_addr #0 align 2 {
  %3 = getelementptr inbounds i8, ptr %0, i64 16
  %4 = load ptr, ptr %3, align 8
  tail call void @_ZN8ValueMap8kill_allEv(ptr noundef nonnull align 8 dereferenceable(52) %4) #19
  %5 = getelementptr inbounds i8, ptr %0, i64 24
  %6 = load ptr, ptr %5, align 8
  %7 = getelementptr inbounds i8, ptr %6, i64 56
  store i32 0, ptr %7, align 4
  %8 = getelementptr inbounds i8, ptr %6, i64 32
  store i32 0, ptr %8, align 4
  %9 = getelementptr inbounds i8, ptr %6, i64 8
  store i32 0, ptr %9, align 4
  %10 = getelementptr inbounds i8, ptr %0, i64 72
  store ptr %1, ptr %10, align 8
  %11 = getelementptr inbounds i8, ptr %1, i64 96
  %12 = load ptr, ptr %11, align 8
  %13 = tail call align 8 ptr @llvm.threadlocal.address.p0(ptr align 8 @_ZN6Thread12_thr_currentE)
  %14 = load ptr, ptr %13, align 8
  %15 = getelementptr inbounds i8, ptr %14, i64 1808
  %16 = load ptr, ptr %15, align 8
  %17 = getelementptr inbounds i8, ptr %16, i64 128
  %18 = load ptr, ptr %17, align 8
  %19 = load ptr, ptr %18, align 8
  %20 = getelementptr inbounds i8, ptr %19, i64 40
  %21 = load ptr, ptr %20, align 8
  %22 = getelementptr inbounds i8, ptr %19, i64 32
  %23 = load ptr, ptr %22, align 8
  %24 = ptrtoint ptr %21 to i64
  %25 = ptrtoint ptr %23 to i64
  %26 = sub i64 %24, %25
  %.not.i.i.i.i = icmp ult i64 %26, 88
  br i1 %.not.i.i.i.i, label %29, label %27

27:                                               ; preds = %2
  %28 = getelementptr inbounds i8, ptr %23, i64 88
  store ptr %28, ptr %22, align 8
  br label %_ZN22CompilationResourceObjnwEm.exit.i

29:                                               ; preds = %2
  %30 = tail call noundef ptr @_ZN5Arena4growEmN17AllocFailStrategy13AllocFailEnumE(ptr noundef nonnull align 8 dereferenceable(48) %19, i64 noundef 88, i32 noundef 0) #19
  br label %_ZN22CompilationResourceObjnwEm.exit.i

_ZN22CompilationResourceObjnwEm.exit.i:           ; preds = %29, %27
  %.0.i.i.i.i = phi ptr [ %23, %27 ], [ %30, %29 ]
  %31 = icmp eq ptr %.0.i.i.i.i, null
  br i1 %31, label %_ZN10ValueStack16copy_for_parsingEv.exit, label %32

32:                                               ; preds = %_ZN22CompilationResourceObjnwEm.exit.i
  tail call void @_ZN10ValueStackC1EPS_NS_4KindEi(ptr noundef nonnull align 8 dereferenceable(81) %.0.i.i.i.i, ptr noundef nonnull %12, i32 noundef 0, i32 noundef -99) #19
  br label %_ZN10ValueStack16copy_for_parsingEv.exit

_ZN10ValueStack16copy_for_parsingEv.exit:         ; preds = %_ZN22CompilationResourceObjnwEm.exit.i, %32
  %33 = getelementptr inbounds i8, ptr %0, i64 80
  store ptr %.0.i.i.i.i, ptr %33, align 8
  %34 = getelementptr inbounds i8, ptr %0, i64 88
  store ptr %1, ptr %34, align 8
  %35 = getelementptr inbounds i8, ptr %1, i64 108
  %36 = load i32, ptr %35, align 4
  %37 = tail call noundef ptr @_ZN12GraphBuilder27iterate_bytecodes_for_blockEi(ptr noundef nonnull align 8 dereferenceable(97) %0, i32 noundef %36)
  ret void
}